target datalayout = "e-m:e-p270:32:32-p271:32:32-p272:64:64-i64:64-i128:128-f80:128-n8:16:32:64-S128"
target triple = "x86_64-pc-linux-gnu"

; Function Attrs: nounwind uwtable
define internal void @FTransformWHT_C(ptr noalias noundef %0, ptr noalias noundef %1) #0 {
  %3 = alloca ptr, align 8
  %4 = alloca ptr, align 8
  %5 = alloca [16 x i32], align 16
  %6 = alloca i32, align 4
  %7 = alloca i32, align 4
  %8 = alloca i32, align 4
  %9 = alloca i32, align 4
  %10 = alloca i32, align 4
  %11 = alloca i32, align 4
  %12 = alloca i32, align 4
  %13 = alloca i32, align 4
  %14 = alloca i32, align 4
  %15 = alloca i32, align 4
  %16 = alloca i32, align 4
  %17 = alloca i32, align 4
  %18 = alloca i32, align 4
  store ptr %0, ptr %3, align 8, !tbaa !20
  store ptr %1, ptr %4, align 8, !tbaa !20
  call void @llvm.lifetime.start.p0(i64 64, ptr %5) #8
  call void @llvm.lifetime.start.p0(i64 4, ptr %6) #8
  store i32 0, ptr %6, align 4, !tbaa !9
  br label %19

19:                                               ; preds = %91, %2
  %20 = load i32, ptr %6, align 4, !tbaa !9
  %21 = icmp slt i32 %20, 4
  br i1 %21, label %22, label %96

22:                                               ; preds = %19
  call void @llvm.lifetime.start.p0(i64 4, ptr %7) #8
  %23 = load ptr, ptr %3, align 8, !tbaa !20
  %24 = getelementptr inbounds i16, ptr %23, i64 0
  %25 = load i16, ptr %24, align 2, !tbaa !23
  %26 = sext i16 %25 to i32
  %27 = load ptr, ptr %3, align 8, !tbaa !20
  %28 = getelementptr inbounds i16, ptr %27, i64 32
  %29 = load i16, ptr %28, align 2, !tbaa !23
  %30 = sext i16 %29 to i32
  %31 = add nsw i32 %26, %30
  store i32 %31, ptr %7, align 4, !tbaa !9
  call void @llvm.lifetime.start.p0(i64 4, ptr %8) #8
  %32 = load ptr, ptr %3, align 8, !tbaa !20
  %33 = getelementptr inbounds i16, ptr %32, i64 16
  %34 = load i16, ptr %33, align 2, !tbaa !23
  %35 = sext i16 %34 to i32
  %36 = load ptr, ptr %3, align 8, !tbaa !20
  %37 = getelementptr inbounds i16, ptr %36, i64 48
  %38 = load i16, ptr %37, align 2, !tbaa !23
  %39 = sext i16 %38 to i32
  %40 = add nsw i32 %35, %39
  store i32 %40, ptr %8, align 4, !tbaa !9
  call void @llvm.lifetime.start.p0(i64 4, ptr %9) #8
  %41 = load ptr, ptr %3, align 8, !tbaa !20
  %42 = getelementptr inbounds i16, ptr %41, i64 16
  %43 = load i16, ptr %42, align 2, !tbaa !23
  %44 = sext i16 %43 to i32
  %45 = load ptr, ptr %3, align 8, !tbaa !20
  %46 = getelementptr inbounds i16, ptr %45, i64 48
  %47 = load i16, ptr %46, align 2, !tbaa !23
  %48 = sext i16 %47 to i32
  %49 = sub nsw i32 %44, %48
  store i32 %49, ptr %9, align 4, !tbaa !9
  call void @llvm.lifetime.start.p0(i64 4, ptr %10) #8
  %50 = load ptr, ptr %3, align 8, !tbaa !20
  %51 = getelementptr inbounds i16, ptr %50, i64 0
  %52 = load i16, ptr %51, align 2, !tbaa !23
  %53 = sext i16 %52 to i32
  %54 = load ptr, ptr %3, align 8, !tbaa !20
  %55 = getelementptr inbounds i16, ptr %54, i64 32
  %56 = load i16, ptr %55, align 2, !tbaa !23
  %57 = sext i16 %56 to i32
  %58 = sub nsw i32 %53, %57
  store i32 %58, ptr %10, align 4, !tbaa !9
  %59 = load i32, ptr %7, align 4, !tbaa !9
  %60 = load i32, ptr %8, align 4, !tbaa !9
  %61 = add nsw i32 %59, %60
  %62 = load i32, ptr %6, align 4, !tbaa !9
  %63 = mul nsw i32 %62, 4
  %64 = add nsw i32 0, %63
  %65 = sext i32 %64 to i64
  %66 = getelementptr inbounds [16 x i32], ptr %5, i64 0, i64 %65
  store i32 %61, ptr %66, align 4, !tbaa !9
  %67 = load i32, ptr %10, align 4, !tbaa !9
  %68 = load i32, ptr %9, align 4, !tbaa !9
  %69 = add nsw i32 %67, %68
  %70 = load i32, ptr %6, align 4, !tbaa !9
  %71 = mul nsw i32 %70, 4
  %72 = add nsw i32 1, %71
  %73 = sext i32 %72 to i64
  %74 = getelementptr inbounds [16 x i32], ptr %5, i64 0, i64 %73
  store i32 %69, ptr %74, align 4, !tbaa !9
  %75 = load i32, ptr %10, align 4, !tbaa !9
  %76 = load i32, ptr %9, align 4, !tbaa !9
  %77 = sub nsw i32 %75, %76
  %78 = load i32, ptr %6, align 4, !tbaa !9
  %79 = mul nsw i32 %78, 4
  %80 = add nsw i32 2, %79
  %81 = sext i32 %80 to i64
  %82 = getelementptr inbounds [16 x i32], ptr %5, i64 0, i64 %81
  store i32 %77, ptr %82, align 4, !tbaa !9
  %83 = load i32, ptr %7, align 4, !tbaa !9
  %84 = load i32, ptr %8, align 4, !tbaa !9
  %85 = sub nsw i32 %83, %84
  %86 = load i32, ptr %6, align 4, !tbaa !9
  %87 = mul nsw i32 %86, 4
  %88 = add nsw i32 3, %87
  %89 = sext i32 %88 to i64
  %90 = getelementptr inbounds [16 x i32], ptr %5, i64 0, i64 %89
  store i32 %85, ptr %90, align 4, !tbaa !9
  call void @llvm.lifetime.end.p0(i64 4, ptr %10) #8
  call void @llvm.lifetime.end.p0(i64 4, ptr %9) #8
  call void @llvm.lifetime.end.p0(i64 4, ptr %8) #8
  call void @llvm.lifetime.end.p0(i64 4, ptr %7) #8
  br label %91

91:                                               ; preds = %22
  %92 = load i32, ptr %6, align 4, !tbaa !9
  %93 = add nsw i32 %92, 1
  store i32 %93, ptr %6, align 4, !tbaa !9
  %94 = load ptr, ptr %3, align 8, !tbaa !20
  %95 = getelementptr inbounds i16, ptr %94, i64 64
  store ptr %95, ptr %3, align 8, !tbaa !20
  br label %19, !llvm.loop !26

96:                                               ; preds = %19
  store i32 0, ptr %6, align 4, !tbaa !9
  br label %97

97:                                               ; preds = %189, %96
  %98 = load i32, ptr %6, align 4, !tbaa !9
  %99 = icmp slt i32 %98, 4
  br i1 %99, label %100, label %192

100:                                              ; preds = %97
  call void @llvm.lifetime.start.p0(i64 4, ptr %11) #8
  %101 = load i32, ptr %6, align 4, !tbaa !9
  %102 = add nsw i32 0, %101
  %103 = sext i32 %102 to i64
  %104 = getelementptr inbounds [16 x i32], ptr %5, i64 0, i64 %103
  %105 = load i32, ptr %104, align 4, !tbaa !9
  %106 = load i32, ptr %6, align 4, !tbaa !9
  %107 = add nsw i32 8, %106
  %108 = sext i32 %107 to i64
  %109 = getelementptr inbounds [16 x i32], ptr %5, i64 0, i64 %108
  %110 = load i32, ptr %109, align 4, !tbaa !9
  %111 = add nsw i32 %105, %110
  store i32 %111, ptr %11, align 4, !tbaa !9
  call void @llvm.lifetime.start.p0(i64 4, ptr %12) #8
  %112 = load i32, ptr %6, align 4, !tbaa !9
  %113 = add nsw i32 4, %112
  %114 = sext i32 %113 to i64
  %115 = getelementptr inbounds [16 x i32], ptr %5, i64 0, i64 %114
  %116 = load i32, ptr %115, align 4, !tbaa !9
  %117 = load i32, ptr %6, align 4, !tbaa !9
  %118 = add nsw i32 12, %117
  %119 = sext i32 %118 to i64
  %120 = getelementptr inbounds [16 x i32], ptr %5, i64 0, i64 %119
  %121 = load i32, ptr %120, align 4, !tbaa !9
  %122 = add nsw i32 %116, %121
  store i32 %122, ptr %12, align 4, !tbaa !9
  call void @llvm.lifetime.start.p0(i64 4, ptr %13) #8
  %123 = load i32, ptr %6, align 4, !tbaa !9
  %124 = add nsw i32 4, %123
  %125 = sext i32 %124 to i64
  %126 = getelementptr inbounds [16 x i32], ptr %5, i64 0, i64 %125
  %127 = load i32, ptr %126, align 4, !tbaa !9
  %128 = load i32, ptr %6, align 4, !tbaa !9
  %129 = add nsw i32 12, %128
  %130 = sext i32 %129 to i64
  %131 = getelementptr inbounds [16 x i32], ptr %5, i64 0, i64 %130
  %132 = load i32, ptr %131, align 4, !tbaa !9
  %133 = sub nsw i32 %127, %132
  store i32 %133, ptr %13, align 4, !tbaa !9
  call void @llvm.lifetime.start.p0(i64 4, ptr %14) #8
  %134 = load i32, ptr %6, align 4, !tbaa !9
  %135 = add nsw i32 0, %134
  %136 = sext i32 %135 to i64
  %137 = getelementptr inbounds [16 x i32], ptr %5, i64 0, i64 %136
  %138 = load i32, ptr %137, align 4, !tbaa !9
  %139 = load i32, ptr %6, align 4, !tbaa !9
  %140 = add nsw i32 8, %139
  %141 = sext i32 %140 to i64
  %142 = getelementptr inbounds [16 x i32], ptr %5, i64 0, i64 %141
  %143 = load i32, ptr %142, align 4, !tbaa !9
  %144 = sub nsw i32 %138, %143
  store i32 %144, ptr %14, align 4, !tbaa !9
  call void @llvm.lifetime.start.p0(i64 4, ptr %15) #8
  %145 = load i32, ptr %11, align 4, !tbaa !9
  %146 = load i32, ptr %12, align 4, !tbaa !9
  %147 = add nsw i32 %145, %146
  store i32 %147, ptr %15, align 4, !tbaa !9
  call void @llvm.lifetime.start.p0(i64 4, ptr %16) #8
  %148 = load i32, ptr %14, align 4, !tbaa !9
  %149 = load i32, ptr %13, align 4, !tbaa !9
  %150 = add nsw i32 %148, %149
  store i32 %150, ptr %16, align 4, !tbaa !9
  call void @llvm.lifetime.start.p0(i64 4, ptr %17) #8
  %151 = load i32, ptr %14, align 4, !tbaa !9
  %152 = load i32, ptr %13, align 4, !tbaa !9
  %153 = sub nsw i32 %151, %152
  store i32 %153, ptr %17, align 4, !tbaa !9
  call void @llvm.lifetime.start.p0(i64 4, ptr %18) #8
  %154 = load i32, ptr %11, align 4, !tbaa !9
  %155 = load i32, ptr %12, align 4, !tbaa !9
  %156 = sub nsw i32 %154, %155
  store i32 %156, ptr %18, align 4, !tbaa !9
  %157 = load i32, ptr %15, align 4, !tbaa !9
  %158 = ashr i32 %157, 1
  %159 = trunc i32 %158 to i16
  %160 = load ptr, ptr %4, align 8, !tbaa !20
  %161 = load i32, ptr %6, align 4, !tbaa !9
  %162 = add nsw i32 0, %161
  %163 = sext i32 %162 to i64
  %164 = getelementptr inbounds i16, ptr %160, i64 %163
  store i16 %159, ptr %164, align 2, !tbaa !23
  %165 = load i32, ptr %16, align 4, !tbaa !9
  %166 = ashr i32 %165, 1
  %167 = trunc i32 %166 to i16
  %168 = load ptr, ptr %4, align 8, !tbaa !20
  %169 = load i32, ptr %6, align 4, !tbaa !9
  %170 = add nsw i32 4, %169
  %171 = sext i32 %170 to i64
  %172 = getelementptr inbounds i16, ptr %168, i64 %171
  store i16 %167, ptr %172, align 2, !tbaa !23
  %173 = load i32, ptr %17, align 4, !tbaa !9
  %174 = ashr i32 %173, 1
  %175 = trunc i32 %174 to i16
  %176 = load ptr, ptr %4, align 8, !tbaa !20
  %177 = load i32, ptr %6, align 4, !tbaa !9
  %178 = add nsw i32 8, %177
  %179 = sext i32 %178 to i64
  %180 = getelementptr inbounds i16, ptr %176, i64 %179
  store i16 %175, ptr %180, align 2, !tbaa !23
  %181 = load i32, ptr %18, align 4, !tbaa !9
  %182 = ashr i32 %181, 1
  %183 = trunc i32 %182 to i16
  %184 = load ptr, ptr %4, align 8, !tbaa !20
  %185 = load i32, ptr %6, align 4, !tbaa !9
  %186 = add nsw i32 12, %185
  %187 = sext i32 %186 to i64
  %188 = getelementptr inbounds i16, ptr %184, i64 %187
  store i16 %183, ptr %188, align 2, !tbaa !23
  call void @llvm.lifetime.end.p0(i64 4, ptr %18) #8
  call void @llvm.lifetime.end.p0(i64 4, ptr %17) #8
  call void @llvm.lifetime.end.p0(i64 4, ptr %16) #8
  call void @llvm.lifetime.end.p0(i64 4, ptr %15) #8
  call void @llvm.lifetime.end.p0(i64 4, ptr %14) #8
  call void @llvm.lifetime.end.p0(i64 4, ptr %13) #8
  call void @llvm.lifetime.end.p0(i64 4, ptr %12) #8
  call void @llvm.lifetime.end.p0(i64 4, ptr %11) #8
  br label %189

189:                                              ; preds = %100
  %190 = load i32, ptr %6, align 4, !tbaa !9
  %191 = add nsw i32 %190, 1
  store i32 %191, ptr %6, align 4, !tbaa !9
  br label %97, !llvm.loop !27

192:                                              ; preds = %97
  call void @llvm.lifetime.end.p0(i64 4, ptr %6) #8
  call void @llvm.lifetime.end.p0(i64 64, ptr %5) #8
  ret void
}