; Function Attrs: nofree norecurse nosync nounwind memory(argmem: readwrite) uwtable
define internal void @FTransformWHT_C(ptr noalias noundef readonly captures(none) %0, ptr noalias noundef writeonly captures(none) %1) #0 {
  %3 = alloca [16 x i32], align 16
  call void @llvm.lifetime.start.p0(i64 64, ptr nonnull %3) #15
  br label %4

4:                                                ; preds = %2, %4
  %indvars.iv = phi i64 [ 0, %2 ], [ %indvars.iv.next, %4 ]
  %.054 = phi ptr [ %0, %2 ], [ %32, %4 ]
  %5 = load i16, ptr %.054, align 2, !tbaa !17
  %6 = sext i16 %5 to i32
  %7 = getelementptr inbounds nuw i8, ptr %.054, i64 64
  %8 = load i16, ptr %7, align 2, !tbaa !17
  %9 = sext i16 %8 to i32
  %10 = add nsw i32 %9, %6
  %11 = getelementptr inbounds nuw i8, ptr %.054, i64 32
  %12 = load i16, ptr %11, align 2, !tbaa !17
  %13 = sext i16 %12 to i32
  %14 = getelementptr inbounds nuw i8, ptr %.054, i64 96
  %15 = load i16, ptr %14, align 2, !tbaa !17
  %16 = sext i16 %15 to i32
  %17 = add nsw i32 %16, %13
  %18 = sub nsw i32 %13, %16
  %19 = sub nsw i32 %6, %9
  %20 = add nsw i32 %17, %10
  %21 = shl nuw nsw i64 %indvars.iv, 2
  %22 = getelementptr inbounds nuw [16 x i32], ptr %3, i64 0, i64 %21
  store i32 %20, ptr %22, align 16, !tbaa !3
  %23 = add nsw i32 %18, %19
  %24 = or disjoint i64 %21, 1
  %25 = getelementptr inbounds nuw [16 x i32], ptr %3, i64 0, i64 %24
  store i32 %23, ptr %25, align 4, !tbaa !3
  %26 = sub nsw i32 %19, %18
  %27 = or disjoint i64 %21, 2
  %28 = getelementptr inbounds nuw [16 x i32], ptr %3, i64 0, i64 %27
  store i32 %26, ptr %28, align 8, !tbaa !3
  %29 = sub nsw i32 %10, %17
  %30 = or disjoint i64 %21, 3
  %31 = getelementptr inbounds nuw [16 x i32], ptr %3, i64 0, i64 %30
  store i32 %29, ptr %31, align 4, !tbaa !3
  %indvars.iv.next = add nuw nsw i64 %indvars.iv, 1
  %32 = getelementptr inbounds nuw i8, ptr %.054, i64 128
  %exitcond.not = icmp eq i64 %indvars.iv.next, 4
  br i1 %exitcond.not, label %.preheader, label %4, !llvm.loop !20

.preheader:                                       ; preds = %4, %.preheader
  %indvars.iv57 = phi i64 [ %indvars.iv.next58, %.preheader ], [ 0, %4 ]
  %33 = getelementptr inbounds nuw [16 x i32], ptr %3, i64 0, i64 %indvars.iv57
  %34 = load i32, ptr %33, align 4, !tbaa !3
  %35 = or disjoint i64 %indvars.iv57, 8
  %36 = getelementptr inbounds nuw [16 x i32], ptr %3, i64 0, i64 %35
  %37 = load i32, ptr %36, align 4, !tbaa !3
  %38 = add nsw i32 %37, %34
  %39 = or disjoint i64 %indvars.iv57, 4
  %40 = getelementptr inbounds nuw [16 x i32], ptr %3, i64 0, i64 %39
  %41 = load i32, ptr %40, align 4, !tbaa !3
  %42 = or disjoint i64 %indvars.iv57, 12
  %43 = getelementptr inbounds nuw [16 x i32], ptr %3, i64 0, i64 %42
  %44 = load i32, ptr %43, align 4, !tbaa !3
  %45 = add nsw i32 %44, %41
  %46 = sub nsw i32 %41, %44
  %47 = sub nsw i32 %34, %37
  %48 = add nsw i32 %45, %38
  %49 = add nsw i32 %46, %47
  %50 = sub nsw i32 %47, %46
  %51 = sub nsw i32 %38, %45
  %52 = lshr i32 %48, 1
  %53 = trunc i32 %52 to i16
  %54 = getelementptr inbounds nuw i16, ptr %1, i64 %indvars.iv57
  store i16 %53, ptr %54, align 2, !tbaa !17
  %55 = lshr i32 %49, 1
  %56 = trunc i32 %55 to i16
  %57 = getelementptr inbounds nuw i16, ptr %1, i64 %39
  store i16 %56, ptr %57, align 2, !tbaa !17
  %58 = lshr i32 %50, 1
  %59 = trunc i32 %58 to i16
  %60 = getelementptr inbounds nuw i16, ptr %1, i64 %35
  store i16 %59, ptr %60, align 2, !tbaa !17
  %61 = lshr i32 %51, 1
  %62 = trunc i32 %61 to i16
  %63 = getelementptr inbounds nuw i16, ptr %1, i64 %42
  store i16 %62, ptr %63, align 2, !tbaa !17
  %indvars.iv.next58 = add nuw nsw i64 %indvars.iv57, 1
  %exitcond60.not = icmp eq i64 %indvars.iv.next58, 4
  br i1 %exitcond60.not, label %64, label %.preheader, !llvm.loop !21

64:                                               ; preds = %.preheader
  call void @llvm.lifetime.end.p0(i64 64, ptr nonnull %3) #15
  ret void
}